target datalayout = "e-m:e-p270:32:32-p271:32:32-p272:64:64-i64:64-i128:128-f80:128-n8:16:32:64-S128"
target triple = "x86_64-unknown-linux-gnu"

%struct.QEnumLookup = type { ptr, ptr, i32 }
%union.CPUTailQ = type { %struct.QTailQLink }
%struct.QTailQLink = type { ptr, ptr }
%struct.CpuInstanceProperties = type { i8, i64, i8, i64, i8, i64, i8, i64, i8, i64, i8, i64, i8, i64, i8, i64 }
%struct.CPUState = type { %struct.DeviceState, ptr, i32, i32, ptr, i32, i8, i8, ptr, i8, i8, i8, i8, i8, i8, i8, i8, i32, i32, i32, i32, i64, i64, i64, [1 x %struct.__jmp_buf_tag], %struct.QemuMutex, %struct.anon, ptr, i32, ptr, ptr, ptr, ptr, i32, i32, %union.anon, %union.anon.0, %union.anon.1, ptr, ptr, i64, i32, ptr, ptr, ptr, i32, i64, i32, %struct.QemuLockCnt, [1 x i64], ptr, i32, i32, i32, i32, i32, ptr, i8, i8, i64, i8, i8, ptr, [8 x i8], [0 x i8], %struct.CPUNegativeOffsetState }
%struct.DeviceState = type { %struct.Object, ptr, ptr, i8, i8, i64, ptr, i32, i8, ptr, %struct.NamedGPIOListHead, %struct.NamedClockListHead, %struct.BusStateHead, i32, i32, i32, %struct.ResettableState, ptr, %struct.MemReentrancyGuard }
%struct.Object = type { ptr, ptr, ptr, i32, ptr }
%struct.NamedGPIOListHead = type { ptr }
%struct.NamedClockListHead = type { ptr }
%struct.BusStateHead = type { ptr }
%struct.ResettableState = type { i32, i8, i8 }
%struct.MemReentrancyGuard = type { i8 }
%struct.__jmp_buf_tag = type { [8 x i64], i32, %struct.__sigset_t }
%struct.__sigset_t = type { [16 x i64] }
%struct.QemuMutex = type { %union.pthread_mutex_t, i8 }
%union.pthread_mutex_t = type { %struct.__pthread_mutex_s }
%struct.__pthread_mutex_s = type { i32, i32, i32, i32, i32, i16, i16, %struct.__pthread_internal_list }
%struct.__pthread_internal_list = type { ptr, ptr }
%struct.anon = type { ptr, ptr }
%union.anon = type { %struct.QTailQLink }
%union.anon.0 = type { %struct.QTailQLink }
%union.anon.1 = type { %struct.QTailQLink }
%struct.QemuLockCnt = type { i32 }
%struct.CPUNegativeOffsetState = type { %struct.CPUTLB, %union.IcountDecr, i8, [11 x i8] }
%struct.CPUTLB = type { %struct.CPUTLBCommon, [16 x %struct.CPUTLBDesc], [16 x %struct.CPUTLBDescFast] }
%struct.CPUTLBCommon = type { %struct.QemuSpin, i16, i64, i64, i64 }
%struct.QemuSpin = type { i32 }
%struct.CPUTLBDesc = type { i64, i64, i64, i64, i64, i64, [8 x %union.CPUTLBEntry], [8 x %struct.CPUTLBEntryFull], ptr }
%union.CPUTLBEntry = type { %struct.anon.2 }
%struct.anon.2 = type { i64, i64, i64, i64 }
%struct.CPUTLBEntryFull = type { i64, i64, %struct.MemTxAttrs, i8, i8, [3 x i8], %union.anon.3 }
%struct.MemTxAttrs = type { i32 }
%union.anon.3 = type { %struct.anon.4 }
%struct.anon.4 = type { i8, i8, i8 }
%struct.CPUTLBDescFast = type { i64, ptr }
%union.IcountDecr = type { i32 }
%struct.CpuInfoFast = type { i64, ptr, i64, ptr, i32, %union.anon.6 }
%union.anon.6 = type { %struct.CpuInfoS390 }
%struct.CpuInfoS390 = type { i32, i8, i8, i8, i32 }
%struct.MachineClass = type { %struct.ObjectClass, ptr, ptr, ptr, ptr, ptr, ptr, ptr, ptr, ptr, i32, i32, i32, i32, i32, i8, i8, ptr, ptr, ptr, ptr, ptr, ptr, i64, ptr, i8, i8, i8, i32, i8, i8, i32, ptr, ptr, i8, i8, i8, i8, i8, i8, i8, i8, %struct.SMPCompatProps, ptr, ptr, ptr, ptr, ptr, ptr, ptr }
%struct.ObjectClass = type { ptr, ptr, [4 x ptr], [4 x ptr], ptr, ptr }
%struct.SMPCompatProps = type { i8, i8, i8, i8, i8, i8 }
%struct.CPUClass = type { %struct.DeviceClass, ptr, ptr, ptr, ptr, ptr, ptr, ptr, ptr, ptr, ptr, ptr, ptr, ptr, ptr, ptr, ptr, ptr, ptr, ptr, ptr, ptr, i32, i32, i8 }
%struct.DeviceClass = type { %struct.ObjectClass, [1 x i64], ptr, ptr, ptr, i8, i8, ptr, ptr, ptr, ptr, ptr }
%struct.CpuInfoFastList = type { ptr, ptr }

@SysEmuTarget_lookup = external constant %struct.QEnumLookup, align 8
@error_abort = external global ptr, align 8
@.str = private unnamed_addr constant [35 x i8] c"../qemu/hw/core/machine-qmp-cmds.c\00", align 1
@__func__.qmp_query_cpus_fast = private unnamed_addr constant [20 x i8] c"qmp_query_cpus_fast\00", align 1
@cpus_queue = external global %union.CPUTailQ, align 8
@.str.1 = private unnamed_addr constant [8 x i8] c"machine\00", align 1
@.str.15 = private unnamed_addr constant [98 x i8] c"/home/dtcxzyw/WorkSpace/Projects/compilers/llvm-opt-benchmark/bench/qemu/qemu/include/hw/boards.h\00", align 1
@__func__.MACHINE = private unnamed_addr constant [8 x i8] c"MACHINE\00", align 1
@__func__.MACHINE_GET_CLASS = private unnamed_addr constant [18 x i8] c"MACHINE_GET_CLASS\00", align 1

; Function Attrs: nounwind sspstrong uwtable
define internal ptr @MACHINE_GET_CLASS(ptr noundef %obj) #0 {
entry:
  %obj.addr = alloca ptr, align 8
  store ptr %obj, ptr %obj.addr, align 8
  %0 = load ptr, ptr %obj.addr, align 8
  %call = call ptr @object_get_class(ptr noundef %0)
  %call1 = call ptr @object_class_dynamic_cast_assert(ptr noundef %call, ptr noundef @.str.1, ptr noundef @.str.15, i32 noundef 23, ptr noundef @__func__.MACHINE_GET_CLASS)
  ret ptr %call1
}

; Function Attrs: nounwind sspstrong uwtable
define internal ptr @MACHINE(ptr noundef %obj) #0 {
entry:
  %obj.addr = alloca ptr, align 8
  store ptr %obj, ptr %obj.addr, align 8
  %0 = load ptr, ptr %obj.addr, align 8
  %call = call ptr @object_dynamic_cast_assert(ptr noundef %0, ptr noundef @.str.1, ptr noundef @.str.15, i32 noundef 23, ptr noundef @__func__.MACHINE)
  ret ptr %call
}

; Function Attrs: nounwind sspstrong uwtable
define dso_local ptr @qmp_query_cpus_fast(ptr noundef %errp) #0 {
entry:
  %errp.addr = alloca ptr, align 8
  %ms = alloca ptr, align 8
  %mc = alloca ptr, align 8
  %head = alloca ptr, align 8
  %tail = alloca ptr, align 8
  %target = alloca i32, align 4
  %cpu = alloca ptr, align 8
  %_val5 = alloca ptr, align 8
  %tmp = alloca ptr, align 8
  %value = alloca ptr, align 8
  %props = alloca ptr, align 8
  %tmp12 = alloca %struct.CpuInstanceProperties, align 8
  %_val6 = alloca ptr, align 8
  %tmp31 = alloca ptr, align 8
  store ptr %errp, ptr %errp.addr, align 8
  %call = call ptr @qdev_get_machine()
  %call1 = call ptr @MACHINE(ptr noundef %call)
  store ptr %call1, ptr %ms, align 8
  %0 = load ptr, ptr %ms, align 8
  %call2 = call ptr @MACHINE_GET_CLASS(ptr noundef %0)
  store ptr %call2, ptr %mc, align 8
  store ptr null, ptr %head, align 8
  store ptr %head, ptr %tail, align 8
  %call3 = call ptr @target_name()
  %call4 = call i32 @qapi_enum_parse(ptr noundef @SysEmuTarget_lookup, ptr noundef %call3, i32 noundef -1, ptr noundef @error_abort)
  store i32 %call4, ptr %target, align 4
  br label %while.cond

while.cond:                                       ; preds = %do.end, %entry
  br i1 false, label %while.body, label %while.end

while.body:                                       ; preds = %while.cond
  br label %do.body

do.body:                                          ; preds = %while.body
  call void @g_assertion_message_expr(ptr noundef null, ptr noundef @.str, i32 noundef 44, ptr noundef @__func__.qmp_query_cpus_fast, ptr noundef null) #7
  unreachable

do.end:                                           ; No predecessors!
  br label %while.cond

while.end:                                        ; preds = %while.cond
  %1 = load atomic i64, ptr @cpus_queue monotonic, align 8
  store i64 %1, ptr %_val5, align 8
  call void asm sideeffect "", "~{memory},~{dirflag},~{fpsr},~{flags}"() #8, !srcloc !5
  %2 = load ptr, ptr %_val5, align 8
  store ptr %2, ptr %tmp, align 8
  %3 = load ptr, ptr %tmp, align 8
  store ptr %3, ptr %cpu, align 8
  br label %for.cond

for.cond:                                         ; preds = %while.end30, %while.end
  %4 = load ptr, ptr %cpu, align 8
  %tobool = icmp ne ptr %4, null
  br i1 %tobool, label %for.body, label %for.end

for.body:                                         ; preds = %for.cond
  %call5 = call noalias ptr @g_malloc0(i64 noundef 48) #9
  store ptr %call5, ptr %value, align 8
  %5 = load ptr, ptr %cpu, align 8
  %cpu_index = getelementptr inbounds %struct.CPUState, ptr %5, i32 0, i32 51
  %6 = load i32, ptr %cpu_index, align 8
  %conv = sext i32 %6 to i64
  %7 = load ptr, ptr %value, align 8
  %cpu_index6 = getelementptr inbounds %struct.CpuInfoFast, ptr %7, i32 0, i32 0
  store i64 %conv, ptr %cpu_index6, align 8
  %8 = load ptr, ptr %cpu, align 8
  %call7 = call ptr @object_get_canonical_path(ptr noundef %8)
  %9 = load ptr, ptr %value, align 8
  %qom_path = getelementptr inbounds %struct.CpuInfoFast, ptr %9, i32 0, i32 1
  store ptr %call7, ptr %qom_path, align 8
  %10 = load ptr, ptr %cpu, align 8
  %thread_id = getelementptr inbounds %struct.CPUState, ptr %10, i32 0, i32 5
  %11 = load i32, ptr %thread_id, align 8
  %conv8 = sext i32 %11 to i64
  %12 = load ptr, ptr %value, align 8
  %thread_id9 = getelementptr inbounds %struct.CpuInfoFast, ptr %12, i32 0, i32 2
  store i64 %conv8, ptr %thread_id9, align 8
  %13 = load ptr, ptr %mc, align 8
  %cpu_index_to_instance_props = getelementptr inbounds %struct.MachineClass, ptr %13, i32 0, i32 46
  %14 = load ptr, ptr %cpu_index_to_instance_props, align 8
  %tobool10 = icmp ne ptr %14, null
  br i1 %tobool10, label %if.then, label %if.end

if.then:                                          ; preds = %for.body
  %call11 = call noalias ptr @g_malloc0(i64 noundef 128) #9
  store ptr %call11, ptr %props, align 8
  %15 = load ptr, ptr %props, align 8
  %16 = load ptr, ptr %mc, align 8
  %cpu_index_to_instance_props13 = getelementptr inbounds %struct.MachineClass, ptr %16, i32 0, i32 46
  %17 = load ptr, ptr %cpu_index_to_instance_props13, align 8
  %18 = load ptr, ptr %ms, align 8
  %19 = load ptr, ptr %cpu, align 8
  %cpu_index14 = getelementptr inbounds %struct.CPUState, ptr %19, i32 0, i32 51
  %20 = load i32, ptr %cpu_index14, align 8
  call void %17(ptr sret(%struct.CpuInstanceProperties) align 8 %tmp12, ptr noundef %18, i32 noundef %20)
  call void @llvm.memcpy.p0.p0.i64(ptr align 8 %15, ptr align 8 %tmp12, i64 128, i1 false)
  %21 = load ptr, ptr %props, align 8
  %22 = load ptr, ptr %value, align 8
  %props15 = getelementptr inbounds %struct.CpuInfoFast, ptr %22, i32 0, i32 3
  store ptr %21, ptr %props15, align 8
  br label %if.end

if.end:                                           ; preds = %if.then, %for.body
  %23 = load i32, ptr %target, align 4
  %24 = load ptr, ptr %value, align 8
  %target16 = getelementptr inbounds %struct.CpuInfoFast, ptr %24, i32 0, i32 4
  store i32 %23, ptr %target16, align 8
  %25 = load ptr, ptr %cpu, align 8
  %cc = getelementptr inbounds %struct.CPUState, ptr %25, i32 0, i32 1
  %26 = load ptr, ptr %cc, align 16
  %query_cpu_fast = getelementptr inbounds %struct.CPUClass, ptr %26, i32 0, i32 6
  %27 = load ptr, ptr %query_cpu_fast, align 8
  %tobool17 = icmp ne ptr %27, null
  br i1 %tobool17, label %if.then18, label %if.end21

if.then18:                                        ; preds = %if.end
  %28 = load ptr, ptr %cpu, align 8
  %cc19 = getelementptr inbounds %struct.CPUState, ptr %28, i32 0, i32 1
  %29 = load ptr, ptr %cc19, align 16
  %query_cpu_fast20 = getelementptr inbounds %struct.CPUClass, ptr %29, i32 0, i32 6
  %30 = load ptr, ptr %query_cpu_fast20, align 8
  %31 = load ptr, ptr %cpu, align 8
  %32 = load ptr, ptr %value, align 8
  call void %30(ptr noundef %31, ptr noundef %32)
  br label %if.end21

if.end21:                                         ; preds = %if.then18, %if.end
  br label %do.body22

do.body22:                                        ; preds = %if.end21
  %call23 = call noalias ptr @g_malloc0(i64 noundef 16) #9
  %33 = load ptr, ptr %tail, align 8
  store ptr %call23, ptr %33, align 8
  %34 = load ptr, ptr %value, align 8
  %35 = load ptr, ptr %tail, align 8
  %36 = load ptr, ptr %35, align 8
  %value24 = getelementptr inbounds %struct.CpuInfoFastList, ptr %36, i32 0, i32 1
  store ptr %34, ptr %value24, align 8
  %37 = load ptr, ptr %tail, align 8
  %38 = load ptr, ptr %37, align 8
  %next = getelementptr inbounds %struct.CpuInfoFastList, ptr %38, i32 0, i32 0
  store ptr %next, ptr %tail, align 8
  br label %do.end25

do.end25:                                         ; preds = %do.body22
  br label %for.inc

for.inc:                                          ; preds = %do.end25
  br label %while.cond26

while.cond26:                                     ; preds = %do.end29, %for.inc
  br i1 false, label %while.body27, label %while.end30

while.body27:                                     ; preds = %while.cond26
  br label %do.body28

do.body28:                                        ; preds = %while.body27
  call void @g_assertion_message_expr(ptr noundef null, ptr noundef @.str, i32 noundef 44, ptr noundef @__func__.qmp_query_cpus_fast, ptr noundef null) #7
  unreachable

do.end29:                                         ; No predecessors!
  br label %while.cond26

while.end30:                                      ; preds = %while.cond26
  %39 = load ptr, ptr %cpu, align 8
  %node = getelementptr inbounds %struct.CPUState, ptr %39, i32 0, i32 35
  %40 = load atomic i64, ptr %node monotonic, align 8
  store i64 %40, ptr %_val6, align 8
  call void asm sideeffect "", "~{memory},~{dirflag},~{fpsr},~{flags}"() #8, !srcloc !6
  %41 = load ptr, ptr %_val6, align 8
  store ptr %41, ptr %tmp31, align 8
  %42 = load ptr, ptr %tmp31, align 8
  store ptr %42, ptr %cpu, align 8
  br label %for.cond, !llvm.loop !7

for.end:                                          ; preds = %for.cond
  %43 = load ptr, ptr %head, align 8
  ret ptr %43
}