; Function Attrs: nounwind sspstrong uwtable
define dso_local ptr @qmp_query_cpus_fast(ptr readnone captures(none) %errp) local_unnamed_addr #0 {
entry:
  %head = alloca ptr, align 8
  %tmp12 = alloca %struct.CpuInstanceProperties, align 8
  %call = tail call ptr @qdev_get_machine() #7
  %call.i = tail call ptr @object_dynamic_cast_assert(ptr noundef %call, ptr noundef nonnull @.str.1, ptr noundef nonnull @.str.15, i32 noundef 23, ptr noundef nonnull @__func__.MACHINE) #7
  %call.i20 = tail call ptr @object_get_class(ptr noundef %call.i) #7
  %call1.i = tail call ptr @object_class_dynamic_cast_assert(ptr noundef %call.i20, ptr noundef nonnull @.str.1, ptr noundef nonnull @.str.15, i32 noundef 23, ptr noundef nonnull @__func__.MACHINE_GET_CLASS) #7
  store ptr null, ptr %head, align 8
  %call3 = tail call ptr @target_name() #7
  %call4 = tail call i32 @qapi_enum_parse(ptr noundef nonnull @SysEmuTarget_lookup, ptr noundef %call3, i32 noundef -1, ptr noundef nonnull @error_abort) #7
  %0 = load atomic i64, ptr @cpus_queue monotonic, align 8
  tail call void asm sideeffect "", "~{memory},~{dirflag},~{fpsr},~{flags}"() #7, !srcloc !5
  %tobool.not22 = icmp eq i64 %0, 0
  br i1 %tobool.not22, label %for.end, label %for.body.lr.ph

for.body.lr.ph:                                   ; preds = %entry
  %cpu_index_to_instance_props = getelementptr inbounds nuw i8, ptr %call1.i, i64 328
  br label %for.body

for.body:                                         ; preds = %for.body.lr.ph, %do.body22
  %cpu.024.in = phi i64 [ %0, %for.body.lr.ph ], [ %9, %do.body22 ]
  %tail.023 = phi ptr [ %head, %for.body.lr.ph ], [ %8, %do.body22 ]
  %cpu.024 = inttoptr i64 %cpu.024.in to ptr
  %call5 = call noalias dereferenceable_or_null(48) ptr @g_malloc0(i64 noundef 48) #8
  %cpu_index = getelementptr inbounds nuw i8, ptr %cpu.024, i64 712
  %1 = load i32, ptr %cpu_index, align 8
  %conv = sext i32 %1 to i64
  store i64 %conv, ptr %call5, align 8
  %call7 = call ptr @object_get_canonical_path(ptr noundef nonnull %cpu.024) #7
  %qom_path = getelementptr inbounds nuw i8, ptr %call5, i64 8
  store ptr %call7, ptr %qom_path, align 8
  %thread_id = getelementptr inbounds nuw i8, ptr %cpu.024, i64 184
  %2 = load i32, ptr %thread_id, align 8
  %conv8 = sext i32 %2 to i64
  %thread_id9 = getelementptr inbounds nuw i8, ptr %call5, i64 16
  store i64 %conv8, ptr %thread_id9, align 8
  %3 = load ptr, ptr %cpu_index_to_instance_props, align 8
  %tobool10.not = icmp eq ptr %3, null
  br i1 %tobool10.not, label %if.end, label %if.then

if.then:                                          ; preds = %for.body
  %call11 = call noalias dereferenceable_or_null(128) ptr @g_malloc0(i64 noundef 128) #8
  %4 = load ptr, ptr %cpu_index_to_instance_props, align 8
  %5 = load i32, ptr %cpu_index, align 8
  call void %4(ptr nonnull sret(%struct.CpuInstanceProperties) align 8 %tmp12, ptr noundef %call.i, i32 noundef %5) #7
  call void @llvm.memcpy.p0.p0.i64(ptr noundef nonnull align 8 dereferenceable(128) %call11, ptr noundef nonnull align 8 dereferenceable(128) %tmp12, i64 128, i1 false)
  %props15 = getelementptr inbounds nuw i8, ptr %call5, i64 24
  store ptr %call11, ptr %props15, align 8
  br label %if.end

if.end:                                           ; preds = %if.then, %for.body
  %target16 = getelementptr inbounds nuw i8, ptr %call5, i64 32
  store i32 %call4, ptr %target16, align 8
  %cc = getelementptr inbounds nuw i8, ptr %cpu.024, i64 160
  %6 = load ptr, ptr %cc, align 16
  %query_cpu_fast = getelementptr inbounds nuw i8, ptr %6, i64 216
  %7 = load ptr, ptr %query_cpu_fast, align 8
  %tobool17.not = icmp eq ptr %7, null
  br i1 %tobool17.not, label %do.body22, label %if.then18

if.then18:                                        ; preds = %if.end
  call void %7(ptr noundef nonnull %cpu.024, ptr noundef nonnull %call5) #7
  br label %do.body22

do.body22:                                        ; preds = %if.end, %if.then18
  %call23 = call noalias dereferenceable_or_null(16) ptr @g_malloc0(i64 noundef 16) #8
  store ptr %call23, ptr %tail.023, align 8
  %value24 = getelementptr inbounds nuw i8, ptr %call23, i64 8
  store ptr %call5, ptr %value24, align 8
  %8 = load ptr, ptr %tail.023, align 8
  %node = getelementptr inbounds nuw i8, ptr %cpu.024, i64 568
  %9 = load atomic i64, ptr %node monotonic, align 8
  call void asm sideeffect "", "~{memory},~{dirflag},~{fpsr},~{flags}"() #7, !srcloc !6
  %tobool.not = icmp eq i64 %9, 0
  br i1 %tobool.not, label %for.end.loopexit, label %for.body, !llvm.loop !7

for.end.loopexit:                                 ; preds = %do.body22
  %head.0.head.0.head.0.head.0..pre = load ptr, ptr %head, align 8
  br label %for.end

for.end:                                          ; preds = %for.end.loopexit, %entry
  %head.0.head.0.head.0. = phi ptr [ %head.0.head.0.head.0.head.0..pre, %for.end.loopexit ], [ null, %entry ]
  ret ptr %head.0.head.0.head.0.
}